target datalayout = "e-m:e-p270:32:32-p271:32:32-p272:64:64-i64:64-i128:128-f80:128-n8:16:32:64-S128"
target triple = "x86_64-pc-linux-gnu"

%struct.lxb_html_tree = type { ptr, ptr, ptr, ptr, ptr, ptr, ptr, %struct.lxb_html_tree_pending_table_t, ptr, i8, i8, i8, i8, i8, i8, ptr, ptr, ptr, i32, i64 }
%struct.lxb_html_tree_pending_table_t = type { ptr, i8 }
%struct.lxb_dom_node = type { %struct.lxb_dom_event_target, i64, i64, i64, ptr, ptr, ptr, ptr, ptr, ptr, ptr, i32, i64 }
%struct.lxb_dom_event_target = type { ptr }
%struct.lexbor_array_t = type { ptr, i64, i64 }

; Function Attrs: nounwind uwtable
define internal ptr @lxb_html_tree_current_node(ptr noundef %0) #0 {
  %2 = alloca ptr, align 8
  %3 = alloca ptr, align 8
  store ptr %0, ptr %3, align 8
  %4 = load ptr, ptr %3, align 8
  %5 = getelementptr inbounds %struct.lxb_html_tree, ptr %4, i32 0, i32 4
  %6 = load ptr, ptr %5, align 8
  %7 = getelementptr inbounds %struct.lexbor_array_t, ptr %6, i32 0, i32 2
  %8 = load i64, ptr %7, align 8
  %9 = icmp eq i64 %8, 0
  br i1 %9, label %10, label %11

10:                                               ; preds = %1
  store ptr null, ptr %2, align 8
  br label %25

11:                                               ; preds = %1
  %12 = load ptr, ptr %3, align 8
  %13 = getelementptr inbounds %struct.lxb_html_tree, ptr %12, i32 0, i32 4
  %14 = load ptr, ptr %13, align 8
  %15 = getelementptr inbounds %struct.lexbor_array_t, ptr %14, i32 0, i32 0
  %16 = load ptr, ptr %15, align 8
  %17 = load ptr, ptr %3, align 8
  %18 = getelementptr inbounds %struct.lxb_html_tree, ptr %17, i32 0, i32 4
  %19 = load ptr, ptr %18, align 8
  %20 = getelementptr inbounds %struct.lexbor_array_t, ptr %19, i32 0, i32 2
  %21 = load i64, ptr %20, align 8
  %22 = sub i64 %21, 1
  %23 = getelementptr inbounds ptr, ptr %16, i64 %22
  %24 = load ptr, ptr %23, align 8
  store ptr %24, ptr %2, align 8
  br label %25

25:                                               ; preds = %11, %10
  %26 = load ptr, ptr %2, align 8
  ret ptr %26
}

; Function Attrs: nounwind uwtable
define internal ptr @lxb_html_tree_open_elements_pop(ptr noundef %0) #0 {
  %2 = alloca ptr, align 8
  store ptr %0, ptr %2, align 8
  %3 = load ptr, ptr %2, align 8
  %4 = getelementptr inbounds %struct.lxb_html_tree, ptr %3, i32 0, i32 4
  %5 = load ptr, ptr %4, align 8
  %6 = call ptr @lexbor_array_pop(ptr noundef %5)
  ret ptr %6
}

; Function Attrs: nounwind uwtable
define internal void @lxb_html_tree_clear_stack_back_to_table_body(ptr noundef %0) #0 {
  %2 = alloca ptr, align 8
  %3 = alloca ptr, align 8
  store ptr %0, ptr %2, align 8
  %4 = load ptr, ptr %2, align 8
  %5 = call ptr @lxb_html_tree_current_node(ptr noundef %4)
  store ptr %5, ptr %3, align 8
  br label %6

6:                                                ; preds = %38, %1
  %7 = load ptr, ptr %3, align 8
  %8 = getelementptr inbounds %struct.lxb_dom_node, ptr %7, i32 0, i32 1
  %9 = load i64, ptr %8, align 8
  %10 = icmp ne i64 %9, 177
  br i1 %10, label %11, label %31

11:                                               ; preds = %6
  %12 = load ptr, ptr %3, align 8
  %13 = getelementptr inbounds %struct.lxb_dom_node, ptr %12, i32 0, i32 1
  %14 = load i64, ptr %13, align 8
  %15 = icmp ne i64 %14, 182
  br i1 %15, label %16, label %31

16:                                               ; preds = %11
  %17 = load ptr, ptr %3, align 8
  %18 = getelementptr inbounds %struct.lxb_dom_node, ptr %17, i32 0, i32 1
  %19 = load i64, ptr %18, align 8
  %20 = icmp ne i64 %19, 184
  br i1 %20, label %21, label %31

21:                                               ; preds = %16
  %22 = load ptr, ptr %3, align 8
  %23 = getelementptr inbounds %struct.lxb_dom_node, ptr %22, i32 0, i32 1
  %24 = load i64, ptr %23, align 8
  %25 = icmp ne i64 %24, 179
  br i1 %25, label %26, label %31

26:                                               ; preds = %21
  %27 = load ptr, ptr %3, align 8
  %28 = getelementptr inbounds %struct.lxb_dom_node, ptr %27, i32 0, i32 1
  %29 = load i64, ptr %28, align 8
  %30 = icmp ne i64 %29, 101
  br i1 %30, label %36, label %31

31:                                               ; preds = %26, %21, %16, %11, %6
  %32 = load ptr, ptr %3, align 8
  %33 = getelementptr inbounds %struct.lxb_dom_node, ptr %32, i32 0, i32 3
  %34 = load i64, ptr %33, align 8
  %35 = icmp ne i64 %34, 2
  br label %36

36:                                               ; preds = %31, %26
  %37 = phi i1 [ true, %26 ], [ %35, %31 ]
  br i1 %37, label %38, label %43

38:                                               ; preds = %36
  %39 = load ptr, ptr %2, align 8
  %40 = call ptr @lxb_html_tree_open_elements_pop(ptr noundef %39)
  %41 = load ptr, ptr %2, align 8
  %42 = call ptr @lxb_html_tree_current_node(ptr noundef %41)
  store ptr %42, ptr %3, align 8
  br label %6

43:                                               ; preds = %36
  ret void
}

; Function Attrs: nounwind uwtable
define internal zeroext i1 @lxb_html_tree_insertion_mode_in_table_body_ct_open_closed(ptr noundef %0, ptr noundef %1) #0 {
  %3 = alloca i1, align 1
  %4 = alloca ptr, align 8
  %5 = alloca ptr, align 8
  %6 = alloca ptr, align 8
  store ptr %0, ptr %4, align 8
  store ptr %1, ptr %5, align 8
  %7 = load ptr, ptr %4, align 8
  %8 = call ptr @lxb_html_tree_element_in_scope_tbody_thead_tfoot(ptr noundef %7)
  store ptr %8, ptr %6, align 8
  %9 = load ptr, ptr %6, align 8
  %10 = icmp eq ptr %9, null
  br i1 %10, label %11, label %14

11:                                               ; preds = %2
  %12 = load ptr, ptr %4, align 8
  %13 = load ptr, ptr %5, align 8
  call void @lxb_html_tree_parse_error(ptr noundef %12, ptr noundef %13, i32 noundef 25)
  store i1 true, ptr %3, align 1
  br label %20

14:                                               ; preds = %2
  %15 = load ptr, ptr %4, align 8
  call void @lxb_html_tree_clear_stack_back_to_table_body(ptr noundef %15)
  %16 = load ptr, ptr %4, align 8
  %17 = call ptr @lxb_html_tree_open_elements_pop(ptr noundef %16)
  %18 = load ptr, ptr %4, align 8
  %19 = getelementptr inbounds %struct.lxb_html_tree, ptr %18, i32 0, i32 15
  store ptr @lxb_html_tree_insertion_mode_in_table, ptr %19, align 8
  store i1 false, ptr %3, align 1
  br label %20

20:                                               ; preds = %14, %11
  %21 = load i1, ptr %3, align 1
  ret i1 %21
}